target datalayout = "e-m:e-p270:32:32-p271:32:32-p272:64:64-i64:64-i128:128-f80:128-n8:16:32:64-S128"
target triple = "x86_64-pc-linux-gnu"

%"class.OpenImageIO::v3_1_0::Image_or_Const" = type { i32, ptr, %"class.OpenImageIO::v3_1_0::span" }
%"class.OpenImageIO::v3_1_0::span" = type { ptr, i64 }
%"struct.OpenImageIO::v3_1_0::ROI" = type { i32, i32, i32, i32, i32, i32, i32, i32 }
%"class.OpenImageIO::v3_1_0::ImageBuf" = type { %"class.std::unique_ptr" }
%"class.std::unique_ptr" = type { %"struct.std::__uniq_ptr_data" }
%"struct.std::__uniq_ptr_data" = type { %"class.std::__uniq_ptr_impl" }
%"class.std::__uniq_ptr_impl" = type { %"class.std::tuple" }
%"class.std::tuple" = type { %"struct.std::_Tuple_impl" }
%"struct.std::_Tuple_impl" = type { %"struct.std::_Tuple_impl.1", %"struct.std::_Head_base.2" }
%"struct.std::_Tuple_impl.1" = type { %"struct.std::_Head_base" }
%"struct.std::_Head_base" = type { ptr }
%"struct.std::_Head_base.2" = type { ptr }

@.str.9 = private unnamed_addr constant [13 x i8] c"invert error\00", align 1

; Function Attrs: mustprogress nounwind uwtable
define linkonce_odr hidden void @_ZN11OpenImageIO6v3_1_04spanIKfLm18446744073709551615EEC2ERS2_(ptr noundef nonnull align 8 dereferenceable(16) %0, ptr noundef nonnull align 4 dereferenceable(4) %1) unnamed_addr #8 comdat align 2 {
  %3 = alloca ptr, align 8
  %4 = alloca ptr, align 8
  store ptr %0, ptr %3, align 8, !tbaa !69
  store ptr %1, ptr %4, align 8, !tbaa !23
  %5 = load ptr, ptr %3, align 8
  %6 = getelementptr inbounds nuw %"class.OpenImageIO::v3_1_0::span", ptr %5, i32 0, i32 0
  %7 = load ptr, ptr %4, align 8, !tbaa !23
  store ptr %7, ptr %6, align 8, !tbaa !71
  %8 = getelementptr inbounds nuw %"class.OpenImageIO::v3_1_0::span", ptr %5, i32 0, i32 1
  store i64 1, ptr %8, align 8, !tbaa !72
  ret void
}

; Function Attrs: mustprogress nounwind uwtable
define linkonce_odr hidden void @_ZN11OpenImageIO6v3_1_04spanIKfLm18446744073709551615EEC2Ev(ptr noundef nonnull align 8 dereferenceable(16) %0) unnamed_addr #8 comdat align 2 {
  %2 = alloca ptr, align 8
  store ptr %0, ptr %2, align 8, !tbaa !69
  %3 = load ptr, ptr %2, align 8
  %4 = getelementptr inbounds nuw %"class.OpenImageIO::v3_1_0::span", ptr %3, i32 0, i32 0
  store ptr null, ptr %4, align 8, !tbaa !71
  %5 = getelementptr inbounds nuw %"class.OpenImageIO::v3_1_0::span", ptr %3, i32 0, i32 1
  store i64 0, ptr %5, align 8, !tbaa !72
  ret void
}

; Function Attrs: mustprogress uwtable
define linkonce_odr hidden void @_ZN11OpenImageIO6v3_1_014Image_or_ConstC2ERKf(ptr noundef nonnull align 8 dereferenceable(32) %0, ptr noundef nonnull align 4 dereferenceable(4) %1) unnamed_addr #6 comdat align 2 {
  %3 = alloca ptr, align 8
  %4 = alloca ptr, align 8
  store ptr %0, ptr %3, align 8, !tbaa !48
  store ptr %1, ptr %4, align 8, !tbaa !23
  %5 = load ptr, ptr %3, align 8
  %6 = getelementptr inbounds nuw %"class.OpenImageIO::v3_1_0::Image_or_Const", ptr %5, i32 0, i32 0
  store i32 1, ptr %6, align 8, !tbaa !50
  %7 = getelementptr inbounds nuw %"class.OpenImageIO::v3_1_0::Image_or_Const", ptr %5, i32 0, i32 1
  store ptr null, ptr %7, align 8, !tbaa !54
  %8 = getelementptr inbounds nuw %"class.OpenImageIO::v3_1_0::Image_or_Const", ptr %5, i32 0, i32 2
  %9 = load ptr, ptr %4, align 8, !tbaa !23
  call void @_ZN11OpenImageIO6v3_1_04spanIKfLm18446744073709551615EEC2ERS2_(ptr noundef nonnull align 8 dereferenceable(16) %8, ptr noundef nonnull align 4 dereferenceable(4) %9)
  ret void
}

; Function Attrs: mustprogress nounwind uwtable
define linkonce_odr hidden void @_ZN11OpenImageIO6v3_1_014Image_or_ConstC2ERKNS0_8ImageBufE(ptr noundef nonnull align 8 dereferenceable(32) %0, ptr noundef nonnull align 8 dereferenceable(16) %1) unnamed_addr #8 comdat align 2 {
  %3 = alloca ptr, align 8
  %4 = alloca ptr, align 8
  store ptr %0, ptr %3, align 8, !tbaa !48
  store ptr %1, ptr %4, align 8, !tbaa !8
  %5 = load ptr, ptr %3, align 8
  %6 = getelementptr inbounds nuw %"class.OpenImageIO::v3_1_0::Image_or_Const", ptr %5, i32 0, i32 0
  store i32 2, ptr %6, align 8, !tbaa !50
  %7 = getelementptr inbounds nuw %"class.OpenImageIO::v3_1_0::Image_or_Const", ptr %5, i32 0, i32 1
  %8 = load ptr, ptr %4, align 8, !tbaa !8
  store ptr %8, ptr %7, align 8, !tbaa !54
  %9 = getelementptr inbounds nuw %"class.OpenImageIO::v3_1_0::Image_or_Const", ptr %5, i32 0, i32 2
  call void @_ZN11OpenImageIO6v3_1_04spanIKfLm18446744073709551615EEC2Ev(ptr noundef nonnull align 8 dereferenceable(16) %9) #3
  ret void
}

; Function Attrs: mustprogress uwtable
define noundef zeroext i1 @_ZN11OpenImageIO6v3_1_012ImageBufAlgo6invertERNS0_8ImageBufERKS2_NS0_3ROIEi(ptr noundef nonnull align 8 dereferenceable(16) %0, ptr noundef nonnull align 8 dereferenceable(16) %1, ptr noundef byval(%"struct.OpenImageIO::v3_1_0::ROI") align 8 %2, i32 noundef %3) #6 {
  %5 = alloca ptr, align 8
  %6 = alloca ptr, align 8
  %7 = alloca i32, align 4
  %8 = alloca %"class.OpenImageIO::v3_1_0::Image_or_Const", align 8
  %9 = alloca %"class.OpenImageIO::v3_1_0::Image_or_Const", align 8
  %10 = alloca float, align 4
  %11 = alloca %"class.OpenImageIO::v3_1_0::Image_or_Const", align 8
  %12 = alloca float, align 4
  %13 = alloca %"struct.OpenImageIO::v3_1_0::ROI", align 8
  store ptr %0, ptr %5, align 8, !tbaa !8
  store ptr %1, ptr %6, align 8, !tbaa !8
  store i32 %3, ptr %7, align 4, !tbaa !10
  %14 = load ptr, ptr %5, align 8, !tbaa !8
  %15 = load ptr, ptr %6, align 8, !tbaa !8
  call void @_ZN11OpenImageIO6v3_1_014Image_or_ConstC2ERKNS0_8ImageBufE(ptr noundef nonnull align 8 dereferenceable(32) %8, ptr noundef nonnull align 8 dereferenceable(16) %15)
  call void @llvm.lifetime.start.p0(i64 4, ptr %10) #3
  store float -1.000000e+00, ptr %10, align 4, !tbaa !25
  call void @_ZN11OpenImageIO6v3_1_014Image_or_ConstC2ERKf(ptr noundef nonnull align 8 dereferenceable(32) %9, ptr noundef nonnull align 4 dereferenceable(4) %10)
  call void @llvm.lifetime.start.p0(i64 4, ptr %12) #3
  store float 1.000000e+00, ptr %12, align 4, !tbaa !25
  call void @_ZN11OpenImageIO6v3_1_014Image_or_ConstC2ERKf(ptr noundef nonnull align 8 dereferenceable(32) %11, ptr noundef nonnull align 4 dereferenceable(4) %12)
  call void @llvm.memcpy.p0.p0.i64(ptr align 4 %13, ptr align 8 %2, i64 32, i1 false), !tbaa.struct !20
  %16 = load i32, ptr %7, align 4, !tbaa !10
  %17 = call noundef zeroext i1 @_ZN11OpenImageIO6v3_1_012ImageBufAlgo3madERNS0_8ImageBufENS0_14Image_or_ConstES4_S4_NS0_3ROIEi(ptr noundef nonnull align 8 dereferenceable(16) %14, ptr noundef byval(%"class.OpenImageIO::v3_1_0::Image_or_Const") align 8 %8, ptr noundef byval(%"class.OpenImageIO::v3_1_0::Image_or_Const") align 8 %9, ptr noundef byval(%"class.OpenImageIO::v3_1_0::Image_or_Const") align 8 %11, ptr noundef byval(%"struct.OpenImageIO::v3_1_0::ROI") align 8 %13, i32 noundef %16)
  call void @llvm.lifetime.end.p0(i64 4, ptr %12) #3
  call void @llvm.lifetime.end.p0(i64 4, ptr %10) #3
  ret i1 %17
}

; Function Attrs: mustprogress uwtable
define void @_ZN11OpenImageIO6v3_1_012ImageBufAlgo6invertERKNS0_8ImageBufENS0_3ROIEi(ptr dead_on_unwind noalias writable sret(%"class.OpenImageIO::v3_1_0::ImageBuf") align 8 %0, ptr noundef nonnull align 8 dereferenceable(16) %1, ptr noundef byval(%"struct.OpenImageIO::v3_1_0::ROI") align 8 %2, i32 noundef %3) #6 personality ptr @__gxx_personality_v0 {
  %5 = alloca ptr, align 8
  %6 = alloca ptr, align 8
  %7 = alloca i32, align 4
  %8 = alloca i1, align 1
  %9 = alloca i8, align 1
  %10 = alloca %"struct.OpenImageIO::v3_1_0::ROI", align 8
  %11 = alloca ptr, align 8
  %12 = alloca i32, align 4
  store ptr %0, ptr %5, align 8
  store ptr %1, ptr %6, align 8, !tbaa !8
  store i32 %3, ptr %7, align 4, !tbaa !10
  store i1 false, ptr %8, align 1
  call void @_ZN11OpenImageIO6v3_1_08ImageBufC1Ev(ptr noundef nonnull align 8 dereferenceable(16) %0)
  call void @llvm.lifetime.start.p0(i64 1, ptr %9) #3
  %13 = load ptr, ptr %6, align 8, !tbaa !8
  call void @llvm.memcpy.p0.p0.i64(ptr align 4 %10, ptr align 8 %2, i64 32, i1 false), !tbaa.struct !20
  %14 = load i32, ptr %7, align 4, !tbaa !10
  %15 = invoke noundef zeroext i1 @_ZN11OpenImageIO6v3_1_012ImageBufAlgo6invertERNS0_8ImageBufERKS2_NS0_3ROIEi(ptr noundef nonnull align 8 dereferenceable(16) %0, ptr noundef nonnull align 8 dereferenceable(16) %13, ptr noundef byval(%"struct.OpenImageIO::v3_1_0::ROI") align 8 %10, i32 noundef %14)
          to label %16 unwind label %25

16:                                               ; preds = %4
  %17 = zext i1 %15 to i8
  store i8 %17, ptr %9, align 1, !tbaa !16
  %18 = load i8, ptr %9, align 1, !tbaa !16, !range !21, !noundef !22
  %19 = trunc i8 %18 to i1
  br i1 %19, label %29, label %20

20:                                               ; preds = %16
  %21 = invoke noundef zeroext i1 @_ZNK11OpenImageIO6v3_1_08ImageBuf9has_errorEv(ptr noundef nonnull align 8 dereferenceable(16) %0)
          to label %22 unwind label %25

22:                                               ; preds = %20
  br i1 %21, label %29, label %23

23:                                               ; preds = %22
  invoke void @_ZNK11OpenImageIO6v3_1_08ImageBuf8errorfmtIA13_cJEEEvRKT_DpOT0_(ptr noundef nonnull align 8 dereferenceable(16) %0, ptr noundef nonnull align 1 dereferenceable(13) @.str.9)
          to label %24 unwind label %25

24:                                               ; preds = %23
  br label %29

25:                                               ; preds = %23, %20, %4
  %26 = landingpad { ptr, i32 }
          cleanup
  %27 = extractvalue { ptr, i32 } %26, 0
  store ptr %27, ptr %11, align 8
  %28 = extractvalue { ptr, i32 } %26, 1
  store i32 %28, ptr %12, align 4
  call void @llvm.lifetime.end.p0(i64 1, ptr %9) #3
  call void @_ZN11OpenImageIO6v3_1_08ImageBufD1Ev(ptr noundef nonnull align 8 dereferenceable(16) %0) #3
  br label %33

29:                                               ; preds = %24, %22, %16
  store i1 true, ptr %8, align 1
  call void @llvm.lifetime.end.p0(i64 1, ptr %9) #3
  %30 = load i1, ptr %8, align 1
  br i1 %30, label %32, label %31

31:                                               ; preds = %29
  call void @_ZN11OpenImageIO6v3_1_08ImageBufD1Ev(ptr noundef nonnull align 8 dereferenceable(16) %0) #3
  br label %32

32:                                               ; preds = %31, %29
  ret void

33:                                               ; preds = %25
  %34 = load ptr, ptr %11, align 8
  %35 = load i32, ptr %12, align 4
  %36 = insertvalue { ptr, i32 } poison, ptr %34, 0
  %37 = insertvalue { ptr, i32 } %36, i32 %35, 1
  resume { ptr, i32 } %37
}