; Function Attrs: mustprogress uwtable
define void @_ZN11OpenImageIO6v3_1_012ImageBufAlgo6invertERKNS0_8ImageBufENS0_3ROIEi(ptr dead_on_unwind noalias nonnull writable sret(%"class.OpenImageIO::v3_1_0::ImageBuf") align 8 %0, ptr noundef nonnull align 8 dereferenceable(16) %1, ptr noundef readonly byval(%"struct.OpenImageIO::v3_1_0::ROI") align 8 captures(none) %2, i32 noundef %3) local_unnamed_addr #5 personality ptr @__gxx_personality_v0 {
  %5 = alloca %"class.OpenImageIO::v3_1_0::Image_or_Const", align 8
  %6 = alloca %"class.OpenImageIO::v3_1_0::Image_or_Const", align 8
  %7 = alloca float, align 4
  %8 = alloca %"class.OpenImageIO::v3_1_0::Image_or_Const", align 8
  %9 = alloca float, align 4
  tail call void @_ZN11OpenImageIO6v3_1_08ImageBufC1Ev(ptr noundef nonnull align 8 dereferenceable(16) %0)
  call void @llvm.lifetime.start.p0(i64 32, ptr nonnull %5)
  call void @llvm.lifetime.start.p0(i64 32, ptr nonnull %6)
  call void @llvm.lifetime.start.p0(i64 32, ptr nonnull %8)
  store i32 2, ptr %5, align 8, !tbaa !11
  %10 = getelementptr inbounds nuw i8, ptr %5, i64 8
  store ptr %1, ptr %10, align 8, !tbaa !22
  %11 = getelementptr inbounds nuw i8, ptr %5, i64 16
  call void @llvm.memset.p0.i64(ptr noundef nonnull align 8 dereferenceable(16) %11, i8 0, i64 16, i1 false)
  call void @llvm.lifetime.start.p0(i64 4, ptr nonnull %7) #25
  store float -1.000000e+00, ptr %7, align 4, !tbaa !37
  store i32 1, ptr %6, align 8, !tbaa !11
  %12 = getelementptr inbounds nuw i8, ptr %6, i64 8
  store ptr null, ptr %12, align 8, !tbaa !22
  %13 = getelementptr inbounds nuw i8, ptr %6, i64 16
  store ptr %7, ptr %13, align 8, !tbaa !81
  %14 = getelementptr inbounds nuw i8, ptr %6, i64 24
  store i64 1, ptr %14, align 8, !tbaa !82
  call void @llvm.lifetime.start.p0(i64 4, ptr nonnull %9) #25
  store float 1.000000e+00, ptr %9, align 4, !tbaa !37
  store i32 1, ptr %8, align 8, !tbaa !11
  %15 = getelementptr inbounds nuw i8, ptr %8, i64 8
  store ptr null, ptr %15, align 8, !tbaa !22
  %16 = getelementptr inbounds nuw i8, ptr %8, i64 16
  store ptr %9, ptr %16, align 8, !tbaa !81
  %17 = getelementptr inbounds nuw i8, ptr %8, i64 24
  store i64 1, ptr %17, align 8, !tbaa !82
  %18 = invoke noundef zeroext i1 @_ZN11OpenImageIO6v3_1_012ImageBufAlgo3madERNS0_8ImageBufENS0_14Image_or_ConstES4_S4_NS0_3ROIEi(ptr noundef nonnull align 8 dereferenceable(16) %0, ptr noundef nonnull byval(%"class.OpenImageIO::v3_1_0::Image_or_Const") align 8 %5, ptr noundef nonnull byval(%"class.OpenImageIO::v3_1_0::Image_or_Const") align 8 %6, ptr noundef nonnull byval(%"class.OpenImageIO::v3_1_0::Image_or_Const") align 8 %8, ptr noundef nonnull byval(%"struct.OpenImageIO::v3_1_0::ROI") align 8 %2, i32 noundef %3)
          to label %19 unwind label %24

19:                                               ; preds = %4
  call void @llvm.lifetime.end.p0(i64 4, ptr nonnull %9) #25
  call void @llvm.lifetime.end.p0(i64 4, ptr nonnull %7) #25
  call void @llvm.lifetime.end.p0(i64 32, ptr nonnull %5)
  call void @llvm.lifetime.end.p0(i64 32, ptr nonnull %6)
  call void @llvm.lifetime.end.p0(i64 32, ptr nonnull %8)
  br i1 %18, label %26, label %20

20:                                               ; preds = %19
  %21 = invoke noundef zeroext i1 @_ZNK11OpenImageIO6v3_1_08ImageBuf9has_errorEv(ptr noundef nonnull align 8 dereferenceable(16) %0)
          to label %22 unwind label %24

22:                                               ; preds = %20
  br i1 %21, label %26, label %23

23:                                               ; preds = %22
  invoke void @_ZNK11OpenImageIO6v3_1_08ImageBuf8errorfmtIA13_cJEEEvRKT_DpOT0_(ptr noundef nonnull align 8 dereferenceable(16) %0, ptr noundef nonnull align 1 dereferenceable(13) @.str.9)
          to label %26 unwind label %24

24:                                               ; preds = %4, %23, %20
  %25 = landingpad { ptr, i32 }
          cleanup
  call void @_ZN11OpenImageIO6v3_1_08ImageBufD1Ev(ptr noundef nonnull align 8 dereferenceable(16) %0) #25
  resume { ptr, i32 } %25

26:                                               ; preds = %19, %22, %23
  ret void
}